; ModuleID = 'source-C-CXX/52/723.c'
source_filename = "source-C-CXX/52/723.c"
target datalayout = "e-m:e-p270:32:32-p271:32:32-p272:64:64-i64:64-f80:128-n8:16:32:64-S128"
target triple = "x86_64-pc-linux-gnu"

@.str = private unnamed_addr constant [3 x i8] c"%d\00", align 1
@.str.1 = private unnamed_addr constant [4 x i8] c"%d,\00", align 1
@.str.2 = private unnamed_addr constant [4 x i8] c"%d\0A\00", align 1

; Function Attrs: nofree nounwind sspstrong uwtable
define dso_local void @main() local_unnamed_addr #0 {
  %1 = alloca [301 x i32], align 16
  %2 = alloca [301 x i32], align 16
  %3 = alloca i32, align 4
  %4 = bitcast [301 x i32]* %1 to i8*
  call void @llvm.lifetime.start.p0i8(i64 1204, i8* nonnull %4) #3
  %5 = bitcast [301 x i32]* %2 to i8*
  call void @llvm.lifetime.start.p0i8(i64 1204, i8* nonnull %5) #3
  %6 = bitcast i32* %3 to i8*
  call void @llvm.lifetime.start.p0i8(i64 4, i8* nonnull %6) #3
  %7 = call i32 (i8*, ...) @__isoc99_scanf(i8* getelementptr inbounds ([3 x i8], [3 x i8]* @.str, i64 0, i64 0), i32* nonnull %3)
  %8 = getelementptr inbounds [301 x i32], [301 x i32]* %2, i64 0, i64 0
  %9 = load i32, i32* %3, align 4, !tbaa !5
  %10 = icmp sgt i32 %9, 0
  br i1 %10, label %13, label %11

11:                                               ; preds = %0
  %12 = getelementptr inbounds [301 x i32], [301 x i32]* %1, i64 0, i64 0
  br label %61

13:                                               ; preds = %0, %13
  %14 = phi i64 [ %17, %13 ], [ 0, %0 ]
  %15 = getelementptr inbounds [301 x i32], [301 x i32]* %2, i64 0, i64 %14
  %16 = call i32 (i8*, ...) @__isoc99_scanf(i8* getelementptr inbounds ([3 x i8], [3 x i8]* @.str, i64 0, i64 0), i32* nonnull %15)
  %17 = add nuw nsw i64 %14, 1
  %18 = load i32, i32* %3, align 4, !tbaa !5
  %19 = sext i32 %18 to i64
  %20 = icmp slt i64 %17, %19
  br i1 %20, label %13, label %21, !llvm.loop !9

21:                                               ; preds = %13
  %22 = getelementptr inbounds [301 x i32], [301 x i32]* %1, i64 0, i64 0
  %23 = icmp sgt i32 %18, 0
  br i1 %23, label %24, label %61

24:                                               ; preds = %21
  %25 = sext i32 %18 to i64
  br label %26

26:                                               ; preds = %24, %51
  %27 = phi i64 [ %52, %51 ], [ 0, %24 ]
  %28 = phi i64 [ %53, %51 ], [ 0, %24 ]
  %29 = getelementptr inbounds [301 x i32], [301 x i32]* %2, i64 0, i64 %28
  %30 = getelementptr inbounds [301 x i32], [301 x i32]* %1, i64 0, i64 %27
  %31 = icmp eq i64 %28, 0
  br i1 %31, label %45, label %32

32:                                               ; preds = %26
  %33 = load i32, i32* %29, align 4, !tbaa !5
  br label %38

34:                                               ; preds = %51
  %35 = add nsw i64 %52, -1
  %36 = getelementptr inbounds [301 x i32], [301 x i32]* %1, i64 0, i64 %35
  %37 = icmp sgt i64 %52, 1
  br i1 %37, label %55, label %61

38:                                               ; preds = %32, %42
  %39 = phi i32* [ %8, %32 ], [ %43, %42 ]
  %40 = load i32, i32* %39, align 4, !tbaa !5
  %41 = icmp eq i32 %33, %40
  br i1 %41, label %45, label %42

42:                                               ; preds = %38
  %43 = getelementptr inbounds i32, i32* %39, i64 1
  %44 = icmp ult i32* %43, %29
  br i1 %44, label %38, label %45, !llvm.loop !11

45:                                               ; preds = %42, %38, %26
  %46 = phi i32* [ %8, %26 ], [ %39, %38 ], [ %43, %42 ]
  %47 = icmp eq i32* %29, %46
  br i1 %47, label %48, label %51

48:                                               ; preds = %45
  %49 = load i32, i32* %29, align 4, !tbaa !5
  store i32 %49, i32* %30, align 4, !tbaa !5
  %50 = add nsw i64 %27, 1
  br label %51

51:                                               ; preds = %45, %48
  %52 = phi i64 [ %50, %48 ], [ %27, %45 ]
  %53 = add nuw nsw i64 %28, 1
  %54 = icmp slt i64 %53, %25
  br i1 %54, label %26, label %34, !llvm.loop !12

55:                                               ; preds = %34, %55
  %56 = phi i32* [ %59, %55 ], [ %22, %34 ]
  %57 = load i32, i32* %56, align 4, !tbaa !5
  %58 = call i32 (i8*, ...) @printf(i8* nonnull dereferenceable(1) getelementptr inbounds ([4 x i8], [4 x i8]* @.str.1, i64 0, i64 0), i32 %57)
  %59 = getelementptr inbounds i32, i32* %56, i64 1
  %60 = icmp ult i32* %59, %36
  br i1 %60, label %55, label %61, !llvm.loop !13

61:                                               ; preds = %55, %11, %21, %34
  %62 = phi i32* [ %22, %34 ], [ %12, %11 ], [ %22, %21 ], [ %59, %55 ]
  %63 = load i32, i32* %62, align 4, !tbaa !5
  %64 = call i32 (i8*, ...) @printf(i8* nonnull dereferenceable(1) getelementptr inbounds ([4 x i8], [4 x i8]* @.str.2, i64 0, i64 0), i32 %63)
  call void @llvm.lifetime.end.p0i8(i64 4, i8* nonnull %6) #3
  call void @llvm.lifetime.end.p0i8(i64 1204, i8* nonnull %5) #3
  call void @llvm.lifetime.end.p0i8(i64 1204, i8* nonnull %4) #3
  ret void
}

; Function Attrs: argmemonly mustprogress nofree nosync nounwind willreturn
declare void @llvm.lifetime.start.p0i8(i64 immarg, i8* nocapture) #1

; Function Attrs: nofree nounwind
declare noundef i32 @__isoc99_scanf(i8* nocapture noundef readonly, ...) local_unnamed_addr #2

; Function Attrs: nofree nounwind
declare noundef i32 @printf(i8* nocapture noundef readonly, ...) local_unnamed_addr #2

; Function Attrs: argmemonly mustprogress nofree nosync nounwind willreturn
declare void @llvm.lifetime.end.p0i8(i64 immarg, i8* nocapture) #1


!llvm.module.flags = !{!0, !1, !2, !3}
!llvm.ident = !{!4}

!0 = !{i32 1, !"wchar_size", i32 4}
!1 = !{i32 7, !"PIC Level", i32 2}
!2 = !{i32 7, !"PIE Level", i32 2}
!3 = !{i32 7, !"uwtable", i32 1}
!4 = !{!"clang version 13.0.0"}
!5 = !{!6, !6, i64 0}
!6 = !{!"int", !7, i64 0}
!7 = !{!"omnipotent char", !8, i64 0}
!8 = !{!"Simple C/C++ TBAA"}
!9 = distinct !{!9, !10}
!10 = !{!"llvm.loop.mustprogress"}
!11 = distinct !{!11, !10}
!12 = distinct !{!12, !10}
!13 = distinct !{!13, !10}
